target datalayout = "e-m:e-p270:32:32-p271:32:32-p272:64:64-i64:64-i128:128-f80:128-n8:16:32:64-S128"
target triple = "x86_64-pc-linux-gnu"

%struct.GISTENTRY = type { i64, ptr, ptr, i16, i8 }
%struct.GistEntryVector = type { i32, [0 x %struct.GISTENTRY] }
%struct.RangeBound = type { i64, i8, i8, i8 }
%struct.GIST_SPLITVEC = type { ptr, i32, i64, i8, ptr, i32, i64, i8 }
%struct.SingleBoundSortItem = type { i32, %struct.RangeBound }

; Function Attrs: inlinehint nounwind uwtable
define internal i64 @PointerGetDatum(ptr noundef %0) #2 {
  %2 = alloca ptr, align 8
  store ptr %0, ptr %2, align 8
  %3 = load ptr, ptr %2, align 8
  %4 = ptrtoint ptr %3 to i64
  ret i64 %4
}

; Function Attrs: inlinehint nounwind uwtable
define internal ptr @DatumGetPointer(i64 noundef %0) #2 {
  %2 = alloca i64, align 8
  store i64 %0, ptr %2, align 8
  %3 = load i64, ptr %2, align 8
  %4 = inttoptr i64 %3 to ptr
  ret ptr %4
}

; Function Attrs: inlinehint nounwind uwtable
define internal i64 @RangeTypePGetDatum(ptr noundef %0) #2 {
  %2 = alloca ptr, align 8
  store ptr %0, ptr %2, align 8
  %3 = load ptr, ptr %2, align 8
  %4 = call i64 @PointerGetDatum(ptr noundef %3)
  ret i64 %4
}

; Function Attrs: inlinehint nounwind uwtable
define internal ptr @DatumGetRangeTypeP(i64 noundef %0) #2 {
  %2 = alloca i64, align 8
  store i64 %0, ptr %2, align 8
  %3 = load i64, ptr %2, align 8
  %4 = call ptr @DatumGetPointer(i64 noundef %3)
  %5 = call ptr @pg_detoast_datum(ptr noundef %4)
  ret ptr %5
}

; Function Attrs: nounwind uwtable
define internal void @range_gist_single_sorting_split(ptr noundef %0, ptr noundef %1, ptr noundef %2, i1 noundef zeroext %3) #0 {
  %5 = alloca ptr, align 8
  %6 = alloca ptr, align 8
  %7 = alloca ptr, align 8
  %8 = alloca i8, align 1
  %9 = alloca ptr, align 8
  %10 = alloca ptr, align 8
  %11 = alloca ptr, align 8
  %12 = alloca i16, align 2
  %13 = alloca i16, align 2
  %14 = alloca i16, align 2
  %15 = alloca ptr, align 8
  %16 = alloca %struct.RangeBound, align 8
  %17 = alloca i8, align 1
  %18 = alloca i32, align 4
  %19 = alloca ptr, align 8
  store ptr %0, ptr %5, align 8
  store ptr %1, ptr %6, align 8
  store ptr %2, ptr %7, align 8
  %20 = zext i1 %3 to i8
  store i8 %20, ptr %8, align 1
  call void @llvm.lifetime.start.p0(i64 8, ptr %9) #8
  call void @llvm.lifetime.start.p0(i64 8, ptr %10) #8
  store ptr null, ptr %10, align 8
  call void @llvm.lifetime.start.p0(i64 8, ptr %11) #8
  store ptr null, ptr %11, align 8
  call void @llvm.lifetime.start.p0(i64 2, ptr %12) #8
  call void @llvm.lifetime.start.p0(i64 2, ptr %13) #8
  call void @llvm.lifetime.start.p0(i64 2, ptr %14) #8
  %21 = load ptr, ptr %6, align 8
  %22 = getelementptr inbounds nuw %struct.GistEntryVector, ptr %21, i32 0, i32 0
  %23 = load i32, ptr %22, align 8
  %24 = sub i32 %23, 1
  %25 = trunc i32 %24 to i16
  store i16 %25, ptr %13, align 2
  %26 = load i16, ptr %13, align 2
  %27 = zext i16 %26 to i64
  %28 = mul i64 %27, 24
  %29 = call ptr @palloc(i64 noundef %28)
  store ptr %29, ptr %9, align 8
  store i16 1, ptr %12, align 2
  br label %30

30:                                               ; preds = %77, %4
  %31 = load i16, ptr %12, align 2
  %32 = zext i16 %31 to i32
  %33 = load i16, ptr %13, align 2
  %34 = zext i16 %33 to i32
  %35 = icmp sle i32 %32, %34
  br i1 %35, label %36, label %82

36:                                               ; preds = %30
  call void @llvm.lifetime.start.p0(i64 8, ptr %15) #8
  %37 = load ptr, ptr %6, align 8
  %38 = getelementptr inbounds nuw %struct.GistEntryVector, ptr %37, i32 0, i32 1
  %39 = load i16, ptr %12, align 2
  %40 = zext i16 %39 to i64
  %41 = getelementptr inbounds nuw [0 x %struct.GISTENTRY], ptr %38, i64 0, i64 %40
  %42 = getelementptr inbounds nuw %struct.GISTENTRY, ptr %41, i32 0, i32 0
  %43 = load i64, ptr %42, align 8
  %44 = call ptr @DatumGetRangeTypeP(i64 noundef %43)
  store ptr %44, ptr %15, align 8
  call void @llvm.lifetime.start.p0(i64 16, ptr %16) #8
  call void @llvm.lifetime.start.p0(i64 1, ptr %17) #8
  %45 = load i16, ptr %12, align 2
  %46 = zext i16 %45 to i32
  %47 = load ptr, ptr %9, align 8
  %48 = load i16, ptr %12, align 2
  %49 = zext i16 %48 to i32
  %50 = sub i32 %49, 1
  %51 = sext i32 %50 to i64
  %52 = getelementptr inbounds %struct.SingleBoundSortItem, ptr %47, i64 %51
  %53 = getelementptr inbounds nuw %struct.SingleBoundSortItem, ptr %52, i32 0, i32 0
  store i32 %46, ptr %53, align 8
  %54 = load i8, ptr %8, align 1, !range !4, !noundef !5
  %55 = trunc i8 %54 to i1
  br i1 %55, label %56, label %66

56:                                               ; preds = %36
  %57 = load ptr, ptr %5, align 8
  %58 = load ptr, ptr %15, align 8
  %59 = load ptr, ptr %9, align 8
  %60 = load i16, ptr %12, align 2
  %61 = zext i16 %60 to i32
  %62 = sub i32 %61, 1
  %63 = sext i32 %62 to i64
  %64 = getelementptr inbounds %struct.SingleBoundSortItem, ptr %59, i64 %63
  %65 = getelementptr inbounds nuw %struct.SingleBoundSortItem, ptr %64, i32 0, i32 1
  call void @range_deserialize(ptr noundef %57, ptr noundef %58, ptr noundef %16, ptr noundef %65, ptr noundef %17)
  br label %76

66:                                               ; preds = %36
  %67 = load ptr, ptr %5, align 8
  %68 = load ptr, ptr %15, align 8
  %69 = load ptr, ptr %9, align 8
  %70 = load i16, ptr %12, align 2
  %71 = zext i16 %70 to i32
  %72 = sub i32 %71, 1
  %73 = sext i32 %72 to i64
  %74 = getelementptr inbounds %struct.SingleBoundSortItem, ptr %69, i64 %73
  %75 = getelementptr inbounds nuw %struct.SingleBoundSortItem, ptr %74, i32 0, i32 1
  call void @range_deserialize(ptr noundef %67, ptr noundef %68, ptr noundef %75, ptr noundef %16, ptr noundef %17)
  br label %76

76:                                               ; preds = %66, %56
  call void @llvm.lifetime.end.p0(i64 1, ptr %17) #8
  call void @llvm.lifetime.end.p0(i64 16, ptr %16) #8
  call void @llvm.lifetime.end.p0(i64 8, ptr %15) #8
  br label %77

77:                                               ; preds = %76
  %78 = load i16, ptr %12, align 2
  %79 = zext i16 %78 to i32
  %80 = add i32 1, %79
  %81 = trunc i32 %80 to i16
  store i16 %81, ptr %12, align 2
  br label %30, !llvm.loop !17

82:                                               ; preds = %30
  %83 = load ptr, ptr %9, align 8
  %84 = load i16, ptr %13, align 2
  %85 = zext i16 %84 to i64
  %86 = load ptr, ptr %5, align 8
  call void @qsort_arg(ptr noundef %83, i64 noundef %85, i64 noundef 24, ptr noundef @single_bound_cmp, ptr noundef %86)
  %87 = load i16, ptr %13, align 2
  %88 = zext i16 %87 to i32
  %89 = sdiv i32 %88, 2
  %90 = trunc i32 %89 to i16
  store i16 %90, ptr %14, align 2
  %91 = load ptr, ptr %7, align 8
  %92 = getelementptr inbounds nuw %struct.GIST_SPLITVEC, ptr %91, i32 0, i32 1
  store i32 0, ptr %92, align 8
  %93 = load ptr, ptr %7, align 8
  %94 = getelementptr inbounds nuw %struct.GIST_SPLITVEC, ptr %93, i32 0, i32 5
  store i32 0, ptr %94, align 8
  store i16 0, ptr %12, align 2
  br label %95

95:                                               ; preds = %176, %82
  %96 = load i16, ptr %12, align 2
  %97 = zext i16 %96 to i32
  %98 = load i16, ptr %13, align 2
  %99 = zext i16 %98 to i32
  %100 = icmp slt i32 %97, %99
  br i1 %100, label %101, label %179

101:                                              ; preds = %95
  call void @llvm.lifetime.start.p0(i64 4, ptr %18) #8
  %102 = load ptr, ptr %9, align 8
  %103 = load i16, ptr %12, align 2
  %104 = zext i16 %103 to i64
  %105 = getelementptr inbounds nuw %struct.SingleBoundSortItem, ptr %102, i64 %104
  %106 = getelementptr inbounds nuw %struct.SingleBoundSortItem, ptr %105, i32 0, i32 0
  %107 = load i32, ptr %106, align 8
  store i32 %107, ptr %18, align 4
  call void @llvm.lifetime.start.p0(i64 8, ptr %19) #8
  %108 = load ptr, ptr %6, align 8
  %109 = getelementptr inbounds nuw %struct.GistEntryVector, ptr %108, i32 0, i32 1
  %110 = load i32, ptr %18, align 4
  %111 = sext i32 %110 to i64
  %112 = getelementptr inbounds [0 x %struct.GISTENTRY], ptr %109, i64 0, i64 %111
  %113 = getelementptr inbounds nuw %struct.GISTENTRY, ptr %112, i32 0, i32 0
  %114 = load i64, ptr %113, align 8
  %115 = call ptr @DatumGetRangeTypeP(i64 noundef %114)
  store ptr %115, ptr %19, align 8
  %116 = load i16, ptr %12, align 2
  %117 = zext i16 %116 to i32
  %118 = load i16, ptr %14, align 2
  %119 = zext i16 %118 to i32
  %120 = icmp slt i32 %117, %119
  br i1 %120, label %121, label %148

121:                                              ; preds = %101
  br label %122

122:                                              ; preds = %121
  %123 = load ptr, ptr %7, align 8
  %124 = getelementptr inbounds nuw %struct.GIST_SPLITVEC, ptr %123, i32 0, i32 1
  %125 = load i32, ptr %124, align 8
  %126 = icmp sgt i32 %125, 0
  br i1 %126, label %127, label %132

127:                                              ; preds = %122
  %128 = load ptr, ptr %5, align 8
  %129 = load ptr, ptr %10, align 8
  %130 = load ptr, ptr %19, align 8
  %131 = call ptr @range_super_union(ptr noundef %128, ptr noundef %129, ptr noundef %130)
  store ptr %131, ptr %10, align 8
  br label %134

132:                                              ; preds = %122
  %133 = load ptr, ptr %19, align 8
  store ptr %133, ptr %10, align 8
  br label %134

134:                                              ; preds = %132, %127
  %135 = load i32, ptr %18, align 4
  %136 = trunc i32 %135 to i16
  %137 = load ptr, ptr %7, align 8
  %138 = getelementptr inbounds nuw %struct.GIST_SPLITVEC, ptr %137, i32 0, i32 0
  %139 = load ptr, ptr %138, align 8
  %140 = load ptr, ptr %7, align 8
  %141 = getelementptr inbounds nuw %struct.GIST_SPLITVEC, ptr %140, i32 0, i32 1
  %142 = load i32, ptr %141, align 8
  %143 = add i32 %142, 1
  store i32 %143, ptr %141, align 8
  %144 = sext i32 %142 to i64
  %145 = getelementptr inbounds i16, ptr %139, i64 %144
  store i16 %136, ptr %145, align 2
  br label %146

146:                                              ; preds = %134
  br label %147

147:                                              ; preds = %146
  br label %175

148:                                              ; preds = %101
  br label %149

149:                                              ; preds = %148
  %150 = load ptr, ptr %7, align 8
  %151 = getelementptr inbounds nuw %struct.GIST_SPLITVEC, ptr %150, i32 0, i32 5
  %152 = load i32, ptr %151, align 8
  %153 = icmp sgt i32 %152, 0
  br i1 %153, label %154, label %159

154:                                              ; preds = %149
  %155 = load ptr, ptr %5, align 8
  %156 = load ptr, ptr %11, align 8
  %157 = load ptr, ptr %19, align 8
  %158 = call ptr @range_super_union(ptr noundef %155, ptr noundef %156, ptr noundef %157)
  store ptr %158, ptr %11, align 8
  br label %161

159:                                              ; preds = %149
  %160 = load ptr, ptr %19, align 8
  store ptr %160, ptr %11, align 8
  br label %161

161:                                              ; preds = %159, %154
  %162 = load i32, ptr %18, align 4
  %163 = trunc i32 %162 to i16
  %164 = load ptr, ptr %7, align 8
  %165 = getelementptr inbounds nuw %struct.GIST_SPLITVEC, ptr %164, i32 0, i32 4
  %166 = load ptr, ptr %165, align 8
  %167 = load ptr, ptr %7, align 8
  %168 = getelementptr inbounds nuw %struct.GIST_SPLITVEC, ptr %167, i32 0, i32 5
  %169 = load i32, ptr %168, align 8
  %170 = add i32 %169, 1
  store i32 %170, ptr %168, align 8
  %171 = sext i32 %169 to i64
  %172 = getelementptr inbounds i16, ptr %166, i64 %171
  store i16 %163, ptr %172, align 2
  br label %173

173:                                              ; preds = %161
  br label %174

174:                                              ; preds = %173
  br label %175

175:                                              ; preds = %174, %147
  call void @llvm.lifetime.end.p0(i64 8, ptr %19) #8
  call void @llvm.lifetime.end.p0(i64 4, ptr %18) #8
  br label %176

176:                                              ; preds = %175
  %177 = load i16, ptr %12, align 2
  %178 = add i16 %177, 1
  store i16 %178, ptr %12, align 2
  br label %95, !llvm.loop !18

179:                                              ; preds = %95
  %180 = load ptr, ptr %10, align 8
  %181 = call i64 @RangeTypePGetDatum(ptr noundef %180)
  %182 = load ptr, ptr %7, align 8
  %183 = getelementptr inbounds nuw %struct.GIST_SPLITVEC, ptr %182, i32 0, i32 2
  store i64 %181, ptr %183, align 8
  %184 = load ptr, ptr %11, align 8
  %185 = call i64 @RangeTypePGetDatum(ptr noundef %184)
  %186 = load ptr, ptr %7, align 8
  %187 = getelementptr inbounds nuw %struct.GIST_SPLITVEC, ptr %186, i32 0, i32 6
  store i64 %185, ptr %187, align 8
  call void @llvm.lifetime.end.p0(i64 2, ptr %14) #8
  call void @llvm.lifetime.end.p0(i64 2, ptr %13) #8
  call void @llvm.lifetime.end.p0(i64 2, ptr %12) #8
  call void @llvm.lifetime.end.p0(i64 8, ptr %11) #8
  call void @llvm.lifetime.end.p0(i64 8, ptr %10) #8
  call void @llvm.lifetime.end.p0(i64 8, ptr %9) #8
  ret void
}