; Function Attrs: nounwind uwtable
define internal fastcc void @range_gist_single_sorting_split(ptr noundef %0, ptr noundef readonly captures(none) %1, ptr noundef captures(none) %2, i1 noundef zeroext %3) unnamed_addr #0 {
  %5 = alloca %struct.RangeBound, align 8
  %6 = alloca i8, align 1
  %7 = load i32, ptr %1, align 8
  %8 = trunc i32 %7 to i16
  %9 = add i16 %8, -1
  %10 = zext i16 %9 to i64
  %11 = mul nuw nsw i64 %10, 24
  %12 = tail call ptr @palloc(i64 noundef %11) #10
  %.not61 = icmp eq i16 %9, 0
  br i1 %.not61, label %._crit_edge.thread, label %.lr.ph

._crit_edge.thread:                               ; preds = %4
  tail call void @qsort_arg(ptr noundef %12, i64 noundef %10, i64 noundef 24, ptr noundef nonnull @single_bound_cmp, ptr noundef %0) #10
  %13 = getelementptr inbounds nuw i8, ptr %2, i64 8
  store i32 0, ptr %13, align 8
  %14 = getelementptr inbounds nuw i8, ptr %2, i64 40
  store i32 0, ptr %14, align 8
  br label %._crit_edge68

.lr.ph:                                           ; preds = %4
  %15 = getelementptr inbounds nuw i8, ptr %1, i64 8
  br i1 %3, label %.lr.ph.split.us, label %.lr.ph.split

.lr.ph.split.us:                                  ; preds = %.lr.ph, %.lr.ph.split.us
  %.05662.us = phi i16 [ %25, %.lr.ph.split.us ], [ 1, %.lr.ph ]
  %16 = zext i16 %.05662.us to i32
  %17 = zext i16 %.05662.us to i64
  %18 = getelementptr inbounds nuw [0 x %struct.GISTENTRY], ptr %15, i64 0, i64 %17
  %19 = load i64, ptr %18, align 8
  %20 = inttoptr i64 %19 to ptr
  %21 = call ptr @pg_detoast_datum(ptr noundef %20) #10
  call void @llvm.lifetime.start.p0(i64 16, ptr nonnull %5) #10
  call void @llvm.lifetime.start.p0(i64 1, ptr nonnull %6) #10
  %22 = getelementptr %struct.SingleBoundSortItem, ptr %12, i64 %17
  %23 = getelementptr i8, ptr %22, i64 -24
  store i32 %16, ptr %23, align 8
  %24 = getelementptr i8, ptr %22, i64 -16
  call void @range_deserialize(ptr noundef %0, ptr noundef %21, ptr noundef nonnull %5, ptr noundef %24, ptr noundef nonnull %6) #10
  call void @llvm.lifetime.end.p0(i64 1, ptr nonnull %6) #10
  call void @llvm.lifetime.end.p0(i64 16, ptr nonnull %5) #10
  %25 = add i16 %.05662.us, 1
  %.not.us = icmp ugt i16 %25, %9
  br i1 %.not.us, label %._crit_edge, label %.lr.ph.split.us, !llvm.loop !18

.lr.ph.split:                                     ; preds = %.lr.ph, %.lr.ph.split
  %.05662 = phi i16 [ %35, %.lr.ph.split ], [ 1, %.lr.ph ]
  %26 = zext i16 %.05662 to i32
  %27 = zext i16 %.05662 to i64
  %28 = getelementptr inbounds nuw [0 x %struct.GISTENTRY], ptr %15, i64 0, i64 %27
  %29 = load i64, ptr %28, align 8
  %30 = inttoptr i64 %29 to ptr
  %31 = call ptr @pg_detoast_datum(ptr noundef %30) #10
  call void @llvm.lifetime.start.p0(i64 16, ptr nonnull %5) #10
  call void @llvm.lifetime.start.p0(i64 1, ptr nonnull %6) #10
  %32 = getelementptr %struct.SingleBoundSortItem, ptr %12, i64 %27
  %33 = getelementptr i8, ptr %32, i64 -24
  store i32 %26, ptr %33, align 8
  %34 = getelementptr i8, ptr %32, i64 -16
  call void @range_deserialize(ptr noundef %0, ptr noundef %31, ptr noundef %34, ptr noundef nonnull %5, ptr noundef nonnull %6) #10
  call void @llvm.lifetime.end.p0(i64 1, ptr nonnull %6) #10
  call void @llvm.lifetime.end.p0(i64 16, ptr nonnull %5) #10
  %35 = add i16 %.05662, 1
  %.not = icmp ugt i16 %35, %9
  br i1 %.not, label %._crit_edge, label %.lr.ph.split, !llvm.loop !18

._crit_edge:                                      ; preds = %.lr.ph.split, %.lr.ph.split.us
  call void @qsort_arg(ptr noundef nonnull %12, i64 noundef %10, i64 noundef 24, ptr noundef nonnull @single_bound_cmp, ptr noundef %0) #10
  %36 = getelementptr inbounds nuw i8, ptr %2, i64 8
  store i32 0, ptr %36, align 8
  %37 = getelementptr inbounds nuw i8, ptr %2, i64 40
  store i32 0, ptr %37, align 8
  %38 = lshr i16 %9, 1
  %39 = getelementptr inbounds nuw i8, ptr %1, i64 8
  %40 = getelementptr inbounds nuw i8, ptr %2, i64 32
  %41 = zext nneg i16 %38 to i64
  br label %42

42:                                               ; preds = %._crit_edge, %69
  %indvars.iv = phi i64 [ 0, %._crit_edge ], [ %indvars.iv.next, %69 ]
  %.065 = phi ptr [ null, %._crit_edge ], [ %.2, %69 ]
  %.05364 = phi ptr [ null, %._crit_edge ], [ %.154, %69 ]
  %43 = getelementptr inbounds nuw %struct.SingleBoundSortItem, ptr %12, i64 %indvars.iv
  %44 = load i32, ptr %43, align 8
  %45 = sext i32 %44 to i64
  %46 = getelementptr inbounds [0 x %struct.GISTENTRY], ptr %39, i64 0, i64 %45
  %47 = load i64, ptr %46, align 8
  %48 = inttoptr i64 %47 to ptr
  %49 = call ptr @pg_detoast_datum(ptr noundef %48) #10
  %50 = icmp samesign ult i64 %indvars.iv, %41
  br i1 %50, label %51, label %60

51:                                               ; preds = %42
  %52 = load i32, ptr %36, align 8
  %53 = icmp sgt i32 %52, 0
  br i1 %53, label %54, label %56

54:                                               ; preds = %51
  %55 = call fastcc ptr @range_super_union(ptr noundef %0, ptr noundef %.065, ptr noundef %49)
  %.pre73 = load i32, ptr %36, align 8
  br label %56

56:                                               ; preds = %51, %54
  %57 = phi i32 [ %.pre73, %54 ], [ %52, %51 ]
  %.1 = phi ptr [ %55, %54 ], [ %49, %51 ]
  %58 = load ptr, ptr %2, align 8
  %59 = add i32 %57, 1
  store i32 %59, ptr %36, align 8
  br label %69

60:                                               ; preds = %42
  %61 = load i32, ptr %37, align 8
  %62 = icmp sgt i32 %61, 0
  br i1 %62, label %63, label %65

63:                                               ; preds = %60
  %64 = call fastcc ptr @range_super_union(ptr noundef %0, ptr noundef %.05364, ptr noundef %49)
  %.pre = load i32, ptr %37, align 8
  br label %65

65:                                               ; preds = %60, %63
  %66 = phi i32 [ %.pre, %63 ], [ %61, %60 ]
  %.255 = phi ptr [ %64, %63 ], [ %49, %60 ]
  %67 = load ptr, ptr %40, align 8
  %68 = add i32 %66, 1
  store i32 %68, ptr %37, align 8
  br label %69

69:                                               ; preds = %65, %56
  %.sink78 = phi i32 [ %66, %65 ], [ %57, %56 ]
  %.sink76 = phi ptr [ %67, %65 ], [ %58, %56 ]
  %.154 = phi ptr [ %.255, %65 ], [ %.05364, %56 ]
  %.2 = phi ptr [ %.065, %65 ], [ %.1, %56 ]
  %.sink = trunc i32 %44 to i16
  %70 = sext i32 %.sink78 to i64
  %71 = getelementptr inbounds i16, ptr %.sink76, i64 %70
  store i16 %.sink, ptr %71, align 2
  %indvars.iv.next = add nuw nsw i64 %indvars.iv, 1
  %exitcond.not = icmp eq i64 %indvars.iv.next, %10
  br i1 %exitcond.not, label %._crit_edge68.loopexit, label %42, !llvm.loop !19

._crit_edge68.loopexit:                           ; preds = %69
  %72 = ptrtoint ptr %.2 to i64
  %73 = ptrtoint ptr %.154 to i64
  br label %._crit_edge68

._crit_edge68:                                    ; preds = %._crit_edge.thread, %._crit_edge68.loopexit
  %.053.lcssa = phi i64 [ %73, %._crit_edge68.loopexit ], [ 0, %._crit_edge.thread ]
  %.0.lcssa = phi i64 [ %72, %._crit_edge68.loopexit ], [ 0, %._crit_edge.thread ]
  %74 = getelementptr inbounds nuw i8, ptr %2, i64 16
  store i64 %.0.lcssa, ptr %74, align 8
  %75 = getelementptr inbounds nuw i8, ptr %2, i64 48
  store i64 %.053.lcssa, ptr %75, align 8
  ret void
}